target datalayout = "e-m:e-p270:32:32-p271:32:32-p272:64:64-i64:64-i128:128-f80:128-n8:16:32:64-S128"
target triple = "x86_64-pc-linux-gnu"

%struct._VAConfigAttrib = type { i32, i32 }
%struct.AVCodecContext = type { ptr, i32, i32, ptr, i32, i32, ptr, ptr, ptr, i64, i32, i32, ptr, i32, %struct.AVRational, %struct.AVRational, %struct.AVRational, i32, i32, i32, i32, i32, %struct.AVRational, i32, i32, i32, i32, i32, i32, i32, i32, i32, i32, i32, ptr, ptr, i32, float, float, float, float, float, float, float, float, float, i32, i32, i32, i32, i32, i32, i32, i32, i32, i32, i32, i32, ptr, ptr, ptr, i32, i32, i32, i32, i32, i32, i32, i32, i32, i32, %struct.AVChannelLayout, i32, i32, i32, i32, i32, i32, i32, i32, ptr, i32, i32, i32, float, float, i32, i32, i32, i32, i32, ptr, i64, i64, float, float, i32, i32, ptr, ptr, i32, i32, i32, i32, i32, ptr, ptr, ptr, ptr, i32, i32, [8 x i64], i32, i32, i32, i32, i32, i32, i32, ptr, ptr, i32, i32, i32, i32, i32, i32, i32, i32, i32, i32, ptr, ptr, i32, i32, ptr, ptr, ptr, ptr, i32, i32, i64, i32, i32, i64, ptr, i64, ptr, i32, ptr, i32 }
%struct.AVRational = type { i32, i32 }
%struct.AVChannelLayout = type { i32, i32, %union.anon, ptr }
%union.anon = type { i64 }
%struct.VAAPIEncodeContext = type { %struct.FFHWBaseEncodeContext, ptr, i32, i32, i32, i32, i32, i32, ptr, ptr, i32, i32, i32, i32, i32, i32, [4 x %struct._VAConfigAttrib], i32, i32, i32, ptr, ptr, [4 x i32], [4 x ptr], [4 x i64], i32, %struct._VAEncMiscParameterRateControl, %struct._VAEncMiscParameterHRD, %struct._VAEncMiscParameterFrameRate, %struct._VAEncMiscParameterBufferMaxFrameSize, %struct._VAEncMiscParameterBufferQualityLevel, ptr, ptr, i32, i32, i32, i32, i32, i32, [20 x i32], [22 x i32], [21 x i32], [23 x i32], i32, i32, ptr, i32, i32 }
%struct.FFHWBaseEncodeContext = type { ptr, ptr, ptr, i32, i32, i32, i32, i32, i32, ptr, ptr, ptr, ptr, ptr, ptr, ptr, ptr, [2 x ptr], i32, i64, i64, i64, i64, i64, i64, i64, [112 x i64], i32, i32, i32, i32, i32, i32, i32, i32, i32, i32, i32, i32, i32, i32, i32, i32, ptr, i32, ptr, i32, ptr }
%struct._VAEncMiscParameterRateControl = type { i32, i32, i32, i32, i32, i32, %union.anon.0, i32, i32, i32, i32, [4 x i32] }
%union.anon.0 = type { %struct.anon }
%struct.anon = type { i32 }
%struct._VAEncMiscParameterHRD = type { i32, i32, [4 x i32] }
%struct._VAEncMiscParameterFrameRate = type { i32, %union.anon.1, [4 x i32] }
%union.anon.1 = type { %struct.anon.2 }
%struct.anon.2 = type { i32 }
%struct._VAEncMiscParameterBufferMaxFrameSize = type { i32, i32, [4 x i32] }
%struct._VAEncMiscParameterBufferQualityLevel = type { i32, [4 x i32] }
%struct.VAAPIEncodeType = type { ptr, i32, i32, ptr, ptr, i64, i64, i64, i64, ptr, ptr, ptr, i32, i32, i32, ptr, ptr, ptr, ptr, ptr }
%struct.FFHWBaseEncodePicture = type { ptr, ptr, ptr, i64, i64, i64, i64, i32, ptr, ptr, i32, i32, i32, i32, ptr, ptr, i32, i32, [16 x ptr], [2 x i32], [2 x [2 x ptr]], ptr, [2 x i32], [2 x i32] }
%struct.VAAPIEncodePicture = type { ptr, i32, i32, i32, ptr, ptr, i32, ptr, i32, ptr, i32, [1024 x i8], i64 }
%struct.AVPacket = type { ptr, i64, i64, ptr, i32, i32, i32, ptr, i32, i64, i64, ptr, ptr, %struct.AVRational }

@.str.10 = private unnamed_addr constant [30 x i8] c"Assertion %s failed at %s:%d\0A\00", align 1
@.str.12 = private unnamed_addr constant [26 x i8] c"libavcodec/vaapi_encode.c\00", align 1
@.str.50 = private unnamed_addr constant [23 x i8] c"!ctx->coded_buffer_ref\00", align 1
@.str.51 = private unnamed_addr constant [30 x i8] c"Output read for pic %ld/%ld.\0A\00", align 1

; Function Attrs: nounwind uwtable
define internal i32 @vaapi_encode_get_coded_data(ptr noundef %0, ptr noundef %1, ptr noundef %2) #0 {
  %4 = alloca ptr, align 8
  %5 = alloca ptr, align 8
  %6 = alloca ptr, align 8
  %7 = alloca ptr, align 8
  %8 = alloca i32, align 4
  %9 = alloca i32, align 4
  %10 = alloca ptr, align 8
  %11 = alloca i32, align 4
  store ptr %0, ptr %4, align 8, !tbaa !4
  store ptr %1, ptr %5, align 8, !tbaa !234
  store ptr %2, ptr %6, align 8, !tbaa !9
  call void @llvm.lifetime.start.p0(i64 8, ptr %7) #10
  %12 = load ptr, ptr %4, align 8, !tbaa !4
  %13 = getelementptr inbounds nuw %struct.AVCodecContext, ptr %12, i32 0, i32 6
  %14 = load ptr, ptr %13, align 8, !tbaa !11
  store ptr %14, ptr %7, align 8, !tbaa !33
  call void @llvm.lifetime.start.p0(i64 4, ptr %8) #10
  call void @llvm.lifetime.start.p0(i64 4, ptr %9) #10
  store i32 0, ptr %9, align 4, !tbaa !37
  call void @llvm.lifetime.start.p0(i64 8, ptr %10) #10
  call void @llvm.lifetime.start.p0(i64 4, ptr %11) #10
  %15 = load ptr, ptr %7, align 8, !tbaa !33
  %16 = getelementptr inbounds nuw %struct.VAAPIEncodeContext, ptr %15, i32 0, i32 45
  %17 = load ptr, ptr %16, align 8, !tbaa !321
  %18 = icmp ne ptr %17, null
  br i1 %18, label %19, label %34

19:                                               ; preds = %3
  %20 = load ptr, ptr %7, align 8, !tbaa !33
  %21 = getelementptr inbounds nuw %struct.VAAPIEncodeContext, ptr %20, i32 0, i32 45
  %22 = load ptr, ptr %21, align 8, !tbaa !321
  %23 = load i32, ptr %22, align 4, !tbaa !37
  store i32 %23, ptr %8, align 4, !tbaa !37
  %24 = load ptr, ptr %4, align 8, !tbaa !4
  %25 = load i32, ptr %8, align 4, !tbaa !37
  %26 = call i32 @vaapi_encode_get_coded_buffer_size(ptr noundef %24, i32 noundef %25)
  store i32 %26, ptr %11, align 4, !tbaa !37
  %27 = load i32, ptr %11, align 4, !tbaa !37
  %28 = icmp slt i32 %27, 0
  br i1 %28, label %29, label %30

29:                                               ; preds = %19
  br label %81

30:                                               ; preds = %19
  %31 = load i32, ptr %11, align 4, !tbaa !37
  %32 = load i32, ptr %9, align 4, !tbaa !37
  %33 = add nsw i32 %32, %31
  store i32 %33, ptr %9, align 4, !tbaa !37
  br label %34

34:                                               ; preds = %30, %3
  %35 = load ptr, ptr %4, align 8, !tbaa !4
  %36 = load ptr, ptr %5, align 8, !tbaa !234
  %37 = getelementptr inbounds nuw %struct.VAAPIEncodePicture, ptr %36, i32 0, i32 6
  %38 = load i32, ptr %37, align 8, !tbaa !243
  %39 = call i32 @vaapi_encode_get_coded_buffer_size(ptr noundef %35, i32 noundef %38)
  store i32 %39, ptr %11, align 4, !tbaa !37
  %40 = load i32, ptr %11, align 4, !tbaa !37
  %41 = icmp slt i32 %40, 0
  br i1 %41, label %42, label %43

42:                                               ; preds = %34
  br label %81

43:                                               ; preds = %34
  %44 = load i32, ptr %11, align 4, !tbaa !37
  %45 = load i32, ptr %9, align 4, !tbaa !37
  %46 = add nsw i32 %45, %44
  store i32 %46, ptr %9, align 4, !tbaa !37
  %47 = load ptr, ptr %4, align 8, !tbaa !4
  %48 = load ptr, ptr %6, align 8, !tbaa !9
  %49 = load i32, ptr %9, align 4, !tbaa !37
  %50 = sext i32 %49 to i64
  %51 = call i32 @ff_get_encode_buffer(ptr noundef %47, ptr noundef %48, i64 noundef %50, i32 noundef 0)
  store i32 %51, ptr %11, align 4, !tbaa !37
  %52 = load i32, ptr %11, align 4, !tbaa !37
  %53 = icmp slt i32 %52, 0
  br i1 %53, label %54, label %55

54:                                               ; preds = %43
  br label %81

55:                                               ; preds = %43
  %56 = load ptr, ptr %6, align 8, !tbaa !9
  %57 = getelementptr inbounds nuw %struct.AVPacket, ptr %56, i32 0, i32 3
  %58 = load ptr, ptr %57, align 8, !tbaa !326
  store ptr %58, ptr %10, align 8, !tbaa !133
  %59 = load ptr, ptr %7, align 8, !tbaa !33
  %60 = getelementptr inbounds nuw %struct.VAAPIEncodeContext, ptr %59, i32 0, i32 45
  %61 = load ptr, ptr %60, align 8, !tbaa !321
  %62 = icmp ne ptr %61, null
  br i1 %62, label %63, label %71

63:                                               ; preds = %55
  %64 = load ptr, ptr %4, align 8, !tbaa !4
  %65 = load i32, ptr %8, align 4, !tbaa !37
  %66 = call i32 @vaapi_encode_get_coded_buffer_data(ptr noundef %64, i32 noundef %65, ptr noundef %10)
  store i32 %66, ptr %11, align 4, !tbaa !37
  %67 = load i32, ptr %11, align 4, !tbaa !37
  %68 = icmp slt i32 %67, 0
  br i1 %68, label %69, label %70

69:                                               ; preds = %63
  br label %81

70:                                               ; preds = %63
  br label %71

71:                                               ; preds = %70, %55
  %72 = load ptr, ptr %4, align 8, !tbaa !4
  %73 = load ptr, ptr %5, align 8, !tbaa !234
  %74 = getelementptr inbounds nuw %struct.VAAPIEncodePicture, ptr %73, i32 0, i32 6
  %75 = load i32, ptr %74, align 8, !tbaa !243
  %76 = call i32 @vaapi_encode_get_coded_buffer_data(ptr noundef %72, i32 noundef %75, ptr noundef %10)
  store i32 %76, ptr %11, align 4, !tbaa !37
  %77 = load i32, ptr %11, align 4, !tbaa !37
  %78 = icmp slt i32 %77, 0
  br i1 %78, label %79, label %80

79:                                               ; preds = %71
  br label %81

80:                                               ; preds = %71
  br label %81

81:                                               ; preds = %80, %79, %69, %54, %42, %29
  %82 = load ptr, ptr %7, align 8, !tbaa !33
  %83 = getelementptr inbounds nuw %struct.VAAPIEncodeContext, ptr %82, i32 0, i32 45
  call void @av_refstruct_unref(ptr noundef %83)
  %84 = load ptr, ptr %5, align 8, !tbaa !234
  %85 = getelementptr inbounds nuw %struct.VAAPIEncodePicture, ptr %84, i32 0, i32 5
  call void @av_refstruct_unref(ptr noundef %85)
  %86 = load ptr, ptr %5, align 8, !tbaa !234
  %87 = getelementptr inbounds nuw %struct.VAAPIEncodePicture, ptr %86, i32 0, i32 6
  store i32 -1, ptr %87, align 8, !tbaa !243
  %88 = load i32, ptr %11, align 4, !tbaa !37
  call void @llvm.lifetime.end.p0(i64 4, ptr %11) #10
  call void @llvm.lifetime.end.p0(i64 8, ptr %10) #10
  call void @llvm.lifetime.end.p0(i64 4, ptr %9) #10
  call void @llvm.lifetime.end.p0(i64 4, ptr %8) #10
  call void @llvm.lifetime.end.p0(i64 8, ptr %7) #10
  ret i32 %88
}

; Function Attrs: nounwind uwtable
define internal i32 @vaapi_encode_output(ptr noundef %0, ptr noundef %1, ptr noundef %2) #0 {
  %4 = alloca i32, align 4
  %5 = alloca ptr, align 8
  %6 = alloca ptr, align 8
  %7 = alloca ptr, align 8
  %8 = alloca ptr, align 8
  %9 = alloca ptr, align 8
  %10 = alloca ptr, align 8
  %11 = alloca ptr, align 8
  %12 = alloca i32, align 4
  %13 = alloca i32, align 4
  store ptr %0, ptr %5, align 8, !tbaa !4
  store ptr %1, ptr %6, align 8, !tbaa !229
  store ptr %2, ptr %7, align 8, !tbaa !9
  call void @llvm.lifetime.start.p0(i64 8, ptr %8) #10
  %14 = load ptr, ptr %5, align 8, !tbaa !4
  %15 = getelementptr inbounds nuw %struct.AVCodecContext, ptr %14, i32 0, i32 6
  %16 = load ptr, ptr %15, align 8, !tbaa !11
  store ptr %16, ptr %8, align 8, !tbaa !31
  call void @llvm.lifetime.start.p0(i64 8, ptr %9) #10
  %17 = load ptr, ptr %5, align 8, !tbaa !4
  %18 = getelementptr inbounds nuw %struct.AVCodecContext, ptr %17, i32 0, i32 6
  %19 = load ptr, ptr %18, align 8, !tbaa !11
  store ptr %19, ptr %9, align 8, !tbaa !33
  call void @llvm.lifetime.start.p0(i64 8, ptr %10) #10
  %20 = load ptr, ptr %6, align 8, !tbaa !229
  %21 = getelementptr inbounds nuw %struct.FFHWBaseEncodePicture, ptr %20, i32 0, i32 0
  %22 = load ptr, ptr %21, align 8, !tbaa !233
  store ptr %22, ptr %10, align 8, !tbaa !234
  call void @llvm.lifetime.start.p0(i64 8, ptr %11) #10
  %23 = load ptr, ptr %7, align 8, !tbaa !9
  store ptr %23, ptr %11, align 8, !tbaa !9
  call void @llvm.lifetime.start.p0(i64 4, ptr %12) #10
  %24 = load ptr, ptr %5, align 8, !tbaa !4
  %25 = load ptr, ptr %6, align 8, !tbaa !229
  %26 = call i32 @vaapi_encode_wait(ptr noundef %24, ptr noundef %25)
  store i32 %26, ptr %12, align 4, !tbaa !37
  %27 = load i32, ptr %12, align 4, !tbaa !37
  %28 = icmp slt i32 %27, 0
  br i1 %28, label %29, label %31

29:                                               ; preds = %3
  %30 = load i32, ptr %12, align 4, !tbaa !37
  store i32 %30, ptr %4, align 4
  store i32 1, ptr %13, align 4
  br label %126

31:                                               ; preds = %3
  %32 = load ptr, ptr %10, align 8, !tbaa !234
  %33 = getelementptr inbounds nuw %struct.VAAPIEncodePicture, ptr %32, i32 0, i32 10
  %34 = load i32, ptr %33, align 8, !tbaa !320
  %35 = icmp ne i32 %34, 0
  br i1 %35, label %36, label %92

36:                                               ; preds = %31
  br label %37

37:                                               ; preds = %36
  %38 = load ptr, ptr %9, align 8, !tbaa !33
  %39 = getelementptr inbounds nuw %struct.VAAPIEncodeContext, ptr %38, i32 0, i32 45
  %40 = load ptr, ptr %39, align 8, !tbaa !321
  %41 = icmp ne ptr %40, null
  br i1 %41, label %42, label %43

42:                                               ; preds = %37
  call void (ptr, i32, ptr, ...) @av_log(ptr noundef null, i32 noundef 0, ptr noundef @.str.10, ptr noundef @.str.50, ptr noundef @.str.12, i32 noundef 783)
  call void @abort() #12
  unreachable

43:                                               ; preds = %37
  br label %44

44:                                               ; preds = %43
  br label %45

45:                                               ; preds = %44
  %46 = load ptr, ptr %10, align 8, !tbaa !234
  %47 = getelementptr inbounds nuw %struct.VAAPIEncodePicture, ptr %46, i32 0, i32 5
  %48 = load ptr, ptr %47, align 8, !tbaa !260
  %49 = call ptr @av_refstruct_ref(ptr noundef %48)
  %50 = load ptr, ptr %9, align 8, !tbaa !33
  %51 = getelementptr inbounds nuw %struct.VAAPIEncodeContext, ptr %50, i32 0, i32 45
  store ptr %49, ptr %51, align 8, !tbaa !321
  %52 = load ptr, ptr %10, align 8, !tbaa !234
  %53 = getelementptr inbounds nuw %struct.VAAPIEncodePicture, ptr %52, i32 0, i32 12
  %54 = load i64, ptr %53, align 8, !tbaa !322
  %55 = icmp ne i64 %54, 0
  br i1 %55, label %56, label %91

56:                                               ; preds = %45
  %57 = load ptr, ptr %8, align 8, !tbaa !31
  %58 = getelementptr inbounds nuw %struct.FFHWBaseEncodeContext, ptr %57, i32 0, i32 47
  %59 = load ptr, ptr %58, align 8, !tbaa !323
  %60 = getelementptr inbounds nuw %struct.AVPacket, ptr %59, i32 0, i32 4
  %61 = load i32, ptr %60, align 8, !tbaa !324
  %62 = icmp ne i32 %61, 0
  br i1 %62, label %63, label %64

63:                                               ; preds = %56
  store i32 -558323010, ptr %12, align 4, !tbaa !37
  br label %120

64:                                               ; preds = %56
  %65 = load ptr, ptr %5, align 8, !tbaa !4
  %66 = load ptr, ptr %8, align 8, !tbaa !31
  %67 = getelementptr inbounds nuw %struct.FFHWBaseEncodeContext, ptr %66, i32 0, i32 47
  %68 = load ptr, ptr %67, align 8, !tbaa !323
  %69 = load ptr, ptr %10, align 8, !tbaa !234
  %70 = getelementptr inbounds nuw %struct.VAAPIEncodePicture, ptr %69, i32 0, i32 12
  %71 = load i64, ptr %70, align 8, !tbaa !322
  %72 = call i32 @ff_get_encode_buffer(ptr noundef %65, ptr noundef %68, i64 noundef %71, i32 noundef 0)
  store i32 %72, ptr %12, align 4, !tbaa !37
  %73 = load i32, ptr %12, align 4, !tbaa !37
  %74 = icmp slt i32 %73, 0
  br i1 %74, label %75, label %76

75:                                               ; preds = %64
  br label %120

76:                                               ; preds = %64
  %77 = load ptr, ptr %8, align 8, !tbaa !31
  %78 = getelementptr inbounds nuw %struct.FFHWBaseEncodeContext, ptr %77, i32 0, i32 47
  %79 = load ptr, ptr %78, align 8, !tbaa !323
  %80 = getelementptr inbounds nuw %struct.AVPacket, ptr %79, i32 0, i32 3
  %81 = load ptr, ptr %80, align 8, !tbaa !326
  %82 = load ptr, ptr %10, align 8, !tbaa !234
  %83 = getelementptr inbounds nuw %struct.VAAPIEncodePicture, ptr %82, i32 0, i32 11
  %84 = getelementptr inbounds [1024 x i8], ptr %83, i64 0, i64 0
  %85 = load ptr, ptr %10, align 8, !tbaa !234
  %86 = getelementptr inbounds nuw %struct.VAAPIEncodePicture, ptr %85, i32 0, i32 12
  %87 = load i64, ptr %86, align 8, !tbaa !322
  call void @llvm.memcpy.p0.p0.i64(ptr align 1 %81, ptr align 4 %84, i64 %87, i1 false)
  %88 = load ptr, ptr %8, align 8, !tbaa !31
  %89 = getelementptr inbounds nuw %struct.FFHWBaseEncodeContext, ptr %88, i32 0, i32 47
  %90 = load ptr, ptr %89, align 8, !tbaa !323
  store ptr %90, ptr %11, align 8, !tbaa !9
  br label %91

91:                                               ; preds = %76, %45
  br label %101

92:                                               ; preds = %31
  %93 = load ptr, ptr %5, align 8, !tbaa !4
  %94 = load ptr, ptr %10, align 8, !tbaa !234
  %95 = load ptr, ptr %7, align 8, !tbaa !9
  %96 = call i32 @vaapi_encode_get_coded_data(ptr noundef %93, ptr noundef %94, ptr noundef %95)
  store i32 %96, ptr %12, align 4, !tbaa !37
  %97 = load i32, ptr %12, align 4, !tbaa !37
  %98 = icmp slt i32 %97, 0
  br i1 %98, label %99, label %100

99:                                               ; preds = %92
  br label %120

100:                                              ; preds = %92
  br label %101

101:                                              ; preds = %100, %91
  %102 = load ptr, ptr %5, align 8, !tbaa !4
  %103 = load ptr, ptr %6, align 8, !tbaa !229
  %104 = getelementptr inbounds nuw %struct.FFHWBaseEncodePicture, ptr %103, i32 0, i32 3
  %105 = load i64, ptr %104, align 8, !tbaa !252
  %106 = load ptr, ptr %6, align 8, !tbaa !229
  %107 = getelementptr inbounds nuw %struct.FFHWBaseEncodePicture, ptr %106, i32 0, i32 4
  %108 = load i64, ptr %107, align 8, !tbaa !253
  call void (ptr, i32, ptr, ...) @av_log(ptr noundef %102, i32 noundef 48, ptr noundef @.str.51, i64 noundef %105, i64 noundef %108)
  %109 = load ptr, ptr %8, align 8, !tbaa !31
  %110 = load ptr, ptr %5, align 8, !tbaa !4
  %111 = load ptr, ptr %6, align 8, !tbaa !229
  %112 = load ptr, ptr %11, align 8, !tbaa !9
  %113 = load ptr, ptr %9, align 8, !tbaa !33
  %114 = getelementptr inbounds nuw %struct.VAAPIEncodeContext, ptr %113, i32 0, i32 1
  %115 = load ptr, ptr %114, align 8, !tbaa !63
  %116 = getelementptr inbounds nuw %struct.VAAPIEncodeType, ptr %115, i32 0, i32 1
  %117 = load i32, ptr %116, align 8, !tbaa !70
  %118 = and i32 %117, 64
  %119 = call i32 @ff_hw_base_encode_set_output_property(ptr noundef %109, ptr noundef %110, ptr noundef %111, ptr noundef %112, i32 noundef %118)
  br label %120

120:                                              ; preds = %101, %99, %75, %63
  %121 = load ptr, ptr %10, align 8, !tbaa !234
  %122 = getelementptr inbounds nuw %struct.VAAPIEncodePicture, ptr %121, i32 0, i32 5
  call void @av_refstruct_unref(ptr noundef %122)
  %123 = load ptr, ptr %10, align 8, !tbaa !234
  %124 = getelementptr inbounds nuw %struct.VAAPIEncodePicture, ptr %123, i32 0, i32 6
  store i32 -1, ptr %124, align 8, !tbaa !243
  %125 = load i32, ptr %12, align 4, !tbaa !37
  store i32 %125, ptr %4, align 4
  store i32 1, ptr %13, align 4
  br label %126

126:                                              ; preds = %120, %29
  call void @llvm.lifetime.end.p0(i64 4, ptr %12) #10
  call void @llvm.lifetime.end.p0(i64 8, ptr %11) #10
  call void @llvm.lifetime.end.p0(i64 8, ptr %10) #10
  call void @llvm.lifetime.end.p0(i64 8, ptr %9) #10
  call void @llvm.lifetime.end.p0(i64 8, ptr %8) #10
  %127 = load i32, ptr %4, align 4
  ret i32 %127
}