; Function Attrs: nounwind uwtable
define internal i32 @vaapi_encode_output(ptr noundef %0, ptr noundef %1, ptr noundef %2) #0 {
  %4 = alloca ptr, align 8
  %5 = getelementptr inbounds nuw i8, ptr %0, i64 32
  %6 = load ptr, ptr %5, align 8, !tbaa !4
  %7 = load ptr, ptr %1, align 8, !tbaa !194
  %8 = tail call fastcc i32 @vaapi_encode_wait(ptr noundef %0, ptr noundef nonnull %1)
  %9 = icmp slt i32 %8, 0
  br i1 %9, label %83, label %10

10:                                               ; preds = %3
  %11 = getelementptr inbounds nuw i8, ptr %7, i64 72
  %12 = load i32, ptr %11, align 8, !tbaa !258
  %.not = icmp eq i32 %12, 0
  br i1 %.not, label %38, label %13

13:                                               ; preds = %10
  %14 = getelementptr inbounds nuw i8, ptr %6, i64 1960
  %15 = load ptr, ptr %14, align 8, !tbaa !259
  %.not46 = icmp eq ptr %15, null
  br i1 %.not46, label %17, label %16

16:                                               ; preds = %13
  tail call void (ptr, i32, ptr, ...) @av_log(ptr noundef null, i32 noundef 0, ptr noundef nonnull @.str.10, ptr noundef nonnull @.str.50, ptr noundef nonnull @.str.12, i32 noundef 783) #9
  tail call void @abort() #11
  unreachable

17:                                               ; preds = %13
  %18 = getelementptr inbounds nuw i8, ptr %7, i64 32
  %19 = load ptr, ptr %18, align 8, !tbaa !196
  %20 = tail call ptr @av_refstruct_ref(ptr noundef %19) #9
  store ptr %20, ptr %14, align 8, !tbaa !259
  %21 = getelementptr inbounds nuw i8, ptr %7, i64 1104
  %22 = load i64, ptr %21, align 8, !tbaa !260
  %.not47 = icmp eq i64 %22, 0
  br i1 %.not47, label %69, label %23

23:                                               ; preds = %17
  %24 = getelementptr inbounds nuw i8, ptr %6, i64 1184
  %25 = load ptr, ptr %24, align 8, !tbaa !261
  %26 = getelementptr inbounds nuw i8, ptr %25, i64 32
  %27 = load i32, ptr %26, align 8, !tbaa !262
  %.not48 = icmp eq i32 %27, 0
  br i1 %.not48, label %28, label %80

28:                                               ; preds = %23
  %29 = tail call i32 @ff_get_encode_buffer(ptr noundef nonnull %0, ptr noundef nonnull %25, i64 noundef %22, i32 noundef 0) #9
  %30 = icmp slt i32 %29, 0
  br i1 %30, label %80, label %31

31:                                               ; preds = %28
  %32 = load ptr, ptr %24, align 8, !tbaa !261
  %33 = getelementptr inbounds nuw i8, ptr %32, i64 24
  %34 = load ptr, ptr %33, align 8, !tbaa !264
  %35 = getelementptr inbounds nuw i8, ptr %7, i64 76
  %36 = load i64, ptr %21, align 8, !tbaa !260
  tail call void @llvm.memcpy.p0.p0.i64(ptr align 1 %34, ptr nonnull align 4 %35, i64 %36, i1 false)
  %37 = load ptr, ptr %24, align 8, !tbaa !261
  br label %69

38:                                               ; preds = %10
  %39 = load ptr, ptr %5, align 8, !tbaa !4
  call void @llvm.lifetime.start.p0(i64 8, ptr nonnull %4) #9
  %40 = getelementptr inbounds nuw i8, ptr %39, i64 1960
  %41 = load ptr, ptr %40, align 8, !tbaa !259
  %.not.i = icmp eq ptr %41, null
  br i1 %.not.i, label %46, label %42

42:                                               ; preds = %38
  %43 = load i32, ptr %41, align 4, !tbaa !109
  %44 = tail call fastcc i32 @vaapi_encode_get_coded_buffer_size(ptr noundef nonnull %0, i32 noundef %43)
  %45 = icmp slt i32 %44, 0
  br i1 %45, label %vaapi_encode_get_coded_data.exit, label %46

46:                                               ; preds = %42, %38
  %.028.i = phi i32 [ undef, %38 ], [ %43, %42 ]
  %.027.i = phi i32 [ 0, %38 ], [ %44, %42 ]
  %47 = getelementptr inbounds nuw i8, ptr %7, i64 40
  %48 = load i32, ptr %47, align 8, !tbaa !202
  %49 = tail call fastcc i32 @vaapi_encode_get_coded_buffer_size(ptr noundef nonnull %0, i32 noundef %48)
  %50 = icmp slt i32 %49, 0
  br i1 %50, label %vaapi_encode_get_coded_data.exit, label %51

51:                                               ; preds = %46
  %52 = add nuw nsw i32 %49, %.027.i
  %53 = zext nneg i32 %52 to i64
  %54 = tail call i32 @ff_get_encode_buffer(ptr noundef nonnull %0, ptr noundef %2, i64 noundef %53, i32 noundef 0) #9
  %55 = icmp slt i32 %54, 0
  br i1 %55, label %vaapi_encode_get_coded_data.exit, label %56

56:                                               ; preds = %51
  %57 = getelementptr inbounds nuw i8, ptr %2, i64 24
  %58 = load ptr, ptr %57, align 8, !tbaa !264
  store ptr %58, ptr %4, align 8, !tbaa !209
  %59 = load ptr, ptr %40, align 8, !tbaa !259
  %.not35.i = icmp eq ptr %59, null
  br i1 %.not35.i, label %63, label %60

60:                                               ; preds = %56
  %61 = call fastcc i32 @vaapi_encode_get_coded_buffer_data(ptr noundef nonnull %0, i32 noundef %.028.i, ptr noundef %4)
  %62 = icmp slt i32 %61, 0
  br i1 %62, label %vaapi_encode_get_coded_data.exit, label %63

63:                                               ; preds = %60, %56
  %64 = load i32, ptr %47, align 8, !tbaa !202
  %65 = call fastcc i32 @vaapi_encode_get_coded_buffer_data(ptr noundef nonnull %0, i32 noundef %64, ptr noundef %4)
  br label %vaapi_encode_get_coded_data.exit

vaapi_encode_get_coded_data.exit:                 ; preds = %42, %46, %51, %60, %63
  %.0.i = phi i32 [ %44, %42 ], [ %49, %46 ], [ %54, %51 ], [ %61, %60 ], [ %65, %63 ]
  tail call void @av_refstruct_unref(ptr noundef nonnull %40) #9
  %66 = getelementptr inbounds nuw i8, ptr %7, i64 32
  tail call void @av_refstruct_unref(ptr noundef nonnull %66) #9
  %67 = getelementptr inbounds nuw i8, ptr %7, i64 40
  store i32 -1, ptr %67, align 8, !tbaa !202
  call void @llvm.lifetime.end.p0(i64 8, ptr nonnull %4) #9
  %68 = icmp slt i32 %.0.i, 0
  br i1 %68, label %80, label %69

69:                                               ; preds = %vaapi_encode_get_coded_data.exit, %17, %31
  %.037 = phi ptr [ %37, %31 ], [ %2, %17 ], [ %2, %vaapi_encode_get_coded_data.exit ]
  %.1 = phi i32 [ %29, %31 ], [ 0, %17 ], [ 0, %vaapi_encode_get_coded_data.exit ]
  %70 = getelementptr inbounds nuw i8, ptr %1, i64 24
  %71 = load i64, ptr %70, align 8, !tbaa !200
  %72 = getelementptr inbounds nuw i8, ptr %1, i64 32
  %73 = load i64, ptr %72, align 8, !tbaa !201
  tail call void (ptr, i32, ptr, ...) @av_log(ptr noundef nonnull %0, i32 noundef 48, ptr noundef nonnull @.str.51, i64 noundef %71, i64 noundef %73) #9
  %74 = getelementptr inbounds nuw i8, ptr %6, i64 1192
  %75 = load ptr, ptr %74, align 8, !tbaa !53
  %76 = getelementptr inbounds nuw i8, ptr %75, i64 8
  %77 = load i32, ptr %76, align 8, !tbaa !60
  %78 = and i32 %77, 64
  %79 = tail call i32 @ff_hw_base_encode_set_output_property(ptr noundef %6, ptr noundef nonnull %0, ptr noundef nonnull %1, ptr noundef %.037, i32 noundef %78) #9
  br label %80

80:                                               ; preds = %23, %vaapi_encode_get_coded_data.exit, %28, %69
  %.0 = phi i32 [ %29, %28 ], [ %.1, %69 ], [ %.0.i, %vaapi_encode_get_coded_data.exit ], [ -558323010, %23 ]
  %81 = getelementptr inbounds nuw i8, ptr %7, i64 32
  tail call void @av_refstruct_unref(ptr noundef nonnull %81) #9
  %82 = getelementptr inbounds nuw i8, ptr %7, i64 40
  store i32 -1, ptr %82, align 8, !tbaa !202
  br label %83

83:                                               ; preds = %3, %80
  %.038 = phi i32 [ %.0, %80 ], [ %8, %3 ]
  ret i32 %.038
}